(dp0
Vbutter
p1
Vunsalted butter
p2
sVoy sauce
p3
S'none'
p4
sVminced garlic
p5
Vunsalted minced garlic
p6
sVblack pepper
p7
Vunsalted black pepper
p8
sVdried parsley
p9
Vlow sodium dried parsley
p10
sVboneless chicken thighs
p11
g4
s.