(dp0
Volive oil
p1
S'none'
p2
sVcheese
p3
S'unsalted'
p4
sVwhite sugar
p5
S'none'
p6
sVbroth
p7
S'unsalted'
p8
sVcarrots
p9
S'low sodium'
p10
sVginger
p11
S'low sodium'
p12
sVhoney
p13
S'low sodium'
p14
sVjuice
p15
S'low sodium'
p16
sVbrine
p17
g16
sVpowder
p18
g4
sVyellow onion
p19
g14
sVmilk
p20
S'low sodium'
p21
sVwhite pepper
p22
S'unsalted'
p23
sVparsley
p24
S'unsalted'
p25
sVBeans
p26
S'none'
p27
sVgreen onions
p28
S'unsalted'
p29
sVred chilies
p30
g6
sVmacaroni
p31
S'low sodium'
p32
sVSalsa
p33
g27
sVsauce
p34
g12
sVchicken breast   half
p35
S'none'
p36
sVgreen pepper
p37
g32
sVbutter
p38
g25
sVchicken broth
p39
g12
sVflour
p40
S'unsalted'
p41
sVoil
p42
g23
sVwater
p43
g23
sVcornstarch
p44
g6
sVblack pepper
p45
S'none'
p46
sVgarlic
p47
g12
sVcereal
p48
g21
sVfrying
p49
g23
sVgarlic powder
p50
g41
sVvinegar
p51
g23
sS'none'
p52
g10
sVonion
p53
g10
sVegg
p54
g12
sVribs
p55
g10
sVshrimp
p56
g16
sVseeds
p57
g14
sVflakes
p58
S'none'
p59
sVorange zest
p60
g12
sVchicken   cubes
p61
g6
sVbread crumbs
p62
g21
sVsteak
p63
g14
sVsalt
p64
g12
sVgreen onion
p65
g23
s.